; Function Attrs: nounwind uwtable
define ptr @l_List_foldl___at_Lean_Meta_IndPredBelow_mkBelowMatcher___spec__4(ptr noundef %0, ptr noundef %1) local_unnamed_addr #0 {
  br label %3

3:                                                ; preds = %lean_dec.exit, %2
  %.014 = phi ptr [ %1, %2 ], [ %26, %lean_dec.exit ]
  %.0 = phi ptr [ %0, %2 ], [ %59, %lean_dec.exit ]
  %4 = ptrtoint ptr %.014 to i64
  %5 = and i64 %4, 1
  %.not.i20 = icmp eq i64 %5, 0
  br i1 %.not.i20, label %9, label %6

6:                                                ; preds = %3
  %7 = lshr i64 %4, 1
  %8 = trunc i64 %7 to i32
  br label %lean_obj_tag.exit

9:                                                ; preds = %3
  %10 = getelementptr i8, ptr %.014, i64 4
  %.val.i = load i32, ptr %10, align 4
  %11 = lshr i32 %.val.i, 24
  br label %lean_obj_tag.exit

lean_obj_tag.exit:                                ; preds = %6, %9
  %.0.i = phi i32 [ %8, %6 ], [ %11, %9 ]
  %12 = icmp eq i32 %.0.i, 0
  br i1 %12, label %13, label %14

13:                                               ; preds = %lean_obj_tag.exit
  ret ptr %.0

14:                                               ; preds = %lean_obj_tag.exit
  %15 = getelementptr inbounds nuw i8, ptr %.014, i64 8
  %16 = load ptr, ptr %15, align 8, !tbaa !4
  %17 = ptrtoint ptr %16 to i64
  %18 = and i64 %17, 1
  %.not = icmp eq i64 %18, 0
  br i1 %.not, label %19, label %lean_inc.exit17

19:                                               ; preds = %14
  %.val.i21 = load i32, ptr %16, align 4, !tbaa !12
  %20 = icmp sgt i32 %.val.i21, 0
  br i1 %20, label %21, label %23, !prof !11

21:                                               ; preds = %19
  %22 = add nuw i32 %.val.i21, 1
  store i32 %22, ptr %16, align 4, !tbaa !12
  br label %lean_inc.exit17

23:                                               ; preds = %19
  %.not.i22 = icmp eq i32 %.val.i21, 0
  br i1 %.not.i22, label %lean_inc.exit17, label %24

24:                                               ; preds = %23
  tail call void @lean_inc_ref_cold(ptr noundef nonnull %16) #6
  br label %lean_inc.exit17

lean_inc.exit17:                                  ; preds = %24, %23, %21, %14
  %25 = getelementptr inbounds nuw i8, ptr %.014, i64 16
  %26 = load ptr, ptr %25, align 8, !tbaa !4
  %27 = ptrtoint ptr %26 to i64
  %28 = and i64 %27, 1
  %.not29 = icmp eq i64 %28, 0
  br i1 %.not29, label %29, label %lean_inc.exit16

29:                                               ; preds = %lean_inc.exit17
  %.val.i23 = load i32, ptr %26, align 4, !tbaa !12
  %30 = icmp sgt i32 %.val.i23, 0
  br i1 %30, label %31, label %33, !prof !11

31:                                               ; preds = %29
  %32 = add nuw i32 %.val.i23, 1
  store i32 %32, ptr %26, align 4, !tbaa !12
  br label %lean_inc.exit16

33:                                               ; preds = %29
  %.not.i24 = icmp eq i32 %.val.i23, 0
  br i1 %.not.i24, label %lean_inc.exit16, label %34

34:                                               ; preds = %33
  tail call void @lean_inc_ref_cold(ptr noundef nonnull %26) #6
  br label %lean_inc.exit16

lean_inc.exit16:                                  ; preds = %34, %33, %31, %lean_inc.exit17
  br i1 %.not.i20, label %35, label %lean_dec.exit15

35:                                               ; preds = %lean_inc.exit16
  %36 = load i32, ptr %.014, align 4, !tbaa !12
  %37 = icmp sgt i32 %36, 1
  br i1 %37, label %38, label %40, !prof !11

38:                                               ; preds = %35
  %39 = add nsw i32 %36, -1
  store i32 %39, ptr %.014, align 4, !tbaa !12
  br label %lean_dec.exit15

40:                                               ; preds = %35
  %.not.i = icmp eq i32 %36, 0
  br i1 %.not.i, label %lean_dec.exit15, label %41

41:                                               ; preds = %40
  tail call void @lean_dec_ref_cold(ptr noundef nonnull %.014) #6
  br label %lean_dec.exit15

lean_dec.exit15:                                  ; preds = %41, %40, %38, %lean_inc.exit16
  %42 = getelementptr inbounds nuw i8, ptr %16, i64 16
  %43 = load ptr, ptr %42, align 8, !tbaa !4
  %44 = ptrtoint ptr %43 to i64
  %45 = and i64 %44, 1
  %.not31 = icmp eq i64 %45, 0
  br i1 %.not31, label %46, label %lean_inc.exit

46:                                               ; preds = %lean_dec.exit15
  %.val.i26 = load i32, ptr %43, align 4, !tbaa !12
  %47 = icmp sgt i32 %.val.i26, 0
  br i1 %47, label %48, label %50, !prof !11

48:                                               ; preds = %46
  %49 = add nuw i32 %.val.i26, 1
  store i32 %49, ptr %43, align 4, !tbaa !12
  br label %lean_inc.exit

50:                                               ; preds = %46
  %.not.i27 = icmp eq i32 %.val.i26, 0
  br i1 %.not.i27, label %lean_inc.exit, label %51

51:                                               ; preds = %50
  tail call void @lean_inc_ref_cold(ptr noundef nonnull %43) #6
  br label %lean_inc.exit

lean_inc.exit:                                    ; preds = %51, %50, %48, %lean_dec.exit15
  br i1 %.not, label %52, label %lean_dec.exit

52:                                               ; preds = %lean_inc.exit
  %53 = load i32, ptr %16, align 4, !tbaa !12
  %54 = icmp sgt i32 %53, 1
  br i1 %54, label %55, label %57, !prof !11

55:                                               ; preds = %52
  %56 = add nsw i32 %53, -1
  store i32 %56, ptr %16, align 4, !tbaa !12
  br label %lean_dec.exit

57:                                               ; preds = %52
  %.not.i18 = icmp eq i32 %53, 0
  br i1 %.not.i18, label %lean_dec.exit, label %58

58:                                               ; preds = %57
  tail call void @lean_dec_ref_cold(ptr noundef nonnull %16) #6
  br label %lean_dec.exit

lean_dec.exit:                                    ; preds = %58, %57, %55, %lean_inc.exit
  %59 = tail call ptr @l_List_appendTR___rarg(ptr noundef %.0, ptr noundef %43) #6
  br label %3
}